target datalayout = "e-m:e-p270:32:32-p271:32:32-p272:64:64-i64:64-i128:128-f80:128-n8:16:32:64-S128"
target triple = "x86_64-pc-linux-gnu"

%struct.SDL_TrayMenu = type { ptr, i32, ptr, ptr, ptr }
%struct.SDL_TrayEntry = type { ptr, ptr, i8, i32, ptr, ptr, ptr }

@gtk_widget_destroy = internal global ptr null, align 8

; Function Attrs: nounwind uwtable
define hidden void @SDL_RemoveTrayEntry_REAL(ptr noundef %0) #0 {
  %2 = alloca ptr, align 8
  %3 = alloca ptr, align 8
  %4 = alloca i8, align 1
  %5 = alloca i32, align 4
  %6 = alloca ptr, align 8
  store ptr %0, ptr %2, align 8
  %7 = load ptr, ptr %2, align 8
  %8 = icmp ne ptr %7, null
  br i1 %8, label %10, label %9

9:                                                ; preds = %1
  br label %99

10:                                               ; preds = %1
  call void @llvm.lifetime.start.p0(i64 8, ptr %3) #7
  %11 = load ptr, ptr %2, align 8
  %12 = getelementptr inbounds nuw %struct.SDL_TrayEntry, ptr %11, i32 0, i32 0
  %13 = load ptr, ptr %12, align 8
  store ptr %13, ptr %3, align 8
  call void @llvm.lifetime.start.p0(i64 1, ptr %4) #7
  store i8 0, ptr %4, align 1
  call void @llvm.lifetime.start.p0(i64 4, ptr %5) #7
  store i32 0, ptr %5, align 4
  br label %14

14:                                               ; preds = %52, %10
  %15 = load i32, ptr %5, align 4
  %16 = load ptr, ptr %3, align 8
  %17 = getelementptr inbounds nuw %struct.SDL_TrayMenu, ptr %16, i32 0, i32 1
  %18 = load i32, ptr %17, align 8
  %19 = sub nsw i32 %18, 1
  %20 = icmp slt i32 %15, %19
  br i1 %20, label %22, label %21

21:                                               ; preds = %14
  call void @llvm.lifetime.end.p0(i64 4, ptr %5) #7
  br label %55

22:                                               ; preds = %14
  %23 = load ptr, ptr %3, align 8
  %24 = getelementptr inbounds nuw %struct.SDL_TrayMenu, ptr %23, i32 0, i32 2
  %25 = load ptr, ptr %24, align 8
  %26 = load i32, ptr %5, align 4
  %27 = sext i32 %26 to i64
  %28 = getelementptr inbounds ptr, ptr %25, i64 %27
  %29 = load ptr, ptr %28, align 8
  %30 = load ptr, ptr %2, align 8
  %31 = icmp eq ptr %29, %30
  br i1 %31, label %32, label %33

32:                                               ; preds = %22
  store i8 1, ptr %4, align 1
  br label %33

33:                                               ; preds = %32, %22
  %34 = load i8, ptr %4, align 1, !range !3, !noundef !4
  %35 = trunc i8 %34 to i1
  br i1 %35, label %36, label %51

36:                                               ; preds = %33
  %37 = load ptr, ptr %3, align 8
  %38 = getelementptr inbounds nuw %struct.SDL_TrayMenu, ptr %37, i32 0, i32 2
  %39 = load ptr, ptr %38, align 8
  %40 = load i32, ptr %5, align 4
  %41 = add nsw i32 %40, 1
  %42 = sext i32 %41 to i64
  %43 = getelementptr inbounds ptr, ptr %39, i64 %42
  %44 = load ptr, ptr %43, align 8
  %45 = load ptr, ptr %3, align 8
  %46 = getelementptr inbounds nuw %struct.SDL_TrayMenu, ptr %45, i32 0, i32 2
  %47 = load ptr, ptr %46, align 8
  %48 = load i32, ptr %5, align 4
  %49 = sext i32 %48 to i64
  %50 = getelementptr inbounds ptr, ptr %47, i64 %49
  store ptr %44, ptr %50, align 8
  br label %51

51:                                               ; preds = %36, %33
  br label %52

52:                                               ; preds = %51
  %53 = load i32, ptr %5, align 4
  %54 = add nsw i32 %53, 1
  store i32 %54, ptr %5, align 4
  br label %14, !llvm.loop !5

55:                                               ; preds = %21
  %56 = load ptr, ptr %2, align 8
  %57 = getelementptr inbounds nuw %struct.SDL_TrayEntry, ptr %56, i32 0, i32 6
  %58 = load ptr, ptr %57, align 8
  %59 = icmp ne ptr %58, null
  br i1 %59, label %60, label %64

60:                                               ; preds = %55
  %61 = load ptr, ptr %2, align 8
  %62 = getelementptr inbounds nuw %struct.SDL_TrayEntry, ptr %61, i32 0, i32 6
  %63 = load ptr, ptr %62, align 8
  call void @DestroySDLMenu(ptr noundef %63)
  br label %64

64:                                               ; preds = %60, %55
  %65 = load ptr, ptr %3, align 8
  %66 = getelementptr inbounds nuw %struct.SDL_TrayMenu, ptr %65, i32 0, i32 1
  %67 = load i32, ptr %66, align 8
  %68 = add nsw i32 %67, -1
  store i32 %68, ptr %66, align 8
  call void @llvm.lifetime.start.p0(i64 8, ptr %6) #7
  %69 = load ptr, ptr %3, align 8
  %70 = getelementptr inbounds nuw %struct.SDL_TrayMenu, ptr %69, i32 0, i32 2
  %71 = load ptr, ptr %70, align 8
  %72 = load ptr, ptr %3, align 8
  %73 = getelementptr inbounds nuw %struct.SDL_TrayMenu, ptr %72, i32 0, i32 1
  %74 = load i32, ptr %73, align 8
  %75 = add nsw i32 %74, 1
  %76 = sext i32 %75 to i64
  %77 = mul i64 %76, 8
  %78 = call ptr @SDL_realloc_REAL(ptr noundef %71, i64 noundef %77) #10
  store ptr %78, ptr %6, align 8
  %79 = load ptr, ptr %6, align 8
  %80 = icmp ne ptr %79, null
  br i1 %80, label %81, label %93

81:                                               ; preds = %64
  %82 = load ptr, ptr %6, align 8
  %83 = load ptr, ptr %3, align 8
  %84 = getelementptr inbounds nuw %struct.SDL_TrayMenu, ptr %83, i32 0, i32 2
  store ptr %82, ptr %84, align 8
  %85 = load ptr, ptr %3, align 8
  %86 = getelementptr inbounds nuw %struct.SDL_TrayMenu, ptr %85, i32 0, i32 2
  %87 = load ptr, ptr %86, align 8
  %88 = load ptr, ptr %3, align 8
  %89 = getelementptr inbounds nuw %struct.SDL_TrayMenu, ptr %88, i32 0, i32 1
  %90 = load i32, ptr %89, align 8
  %91 = sext i32 %90 to i64
  %92 = getelementptr inbounds ptr, ptr %87, i64 %91
  store ptr null, ptr %92, align 8
  br label %93

93:                                               ; preds = %81, %64
  %94 = load ptr, ptr @gtk_widget_destroy, align 8
  %95 = load ptr, ptr %2, align 8
  %96 = getelementptr inbounds nuw %struct.SDL_TrayEntry, ptr %95, i32 0, i32 1
  %97 = load ptr, ptr %96, align 8
  call void %94(ptr noundef %97)
  %98 = load ptr, ptr %2, align 8
  call void @SDL_free_REAL(ptr noundef %98)
  call void @llvm.lifetime.end.p0(i64 8, ptr %6) #7
  call void @llvm.lifetime.end.p0(i64 1, ptr %4) #7
  call void @llvm.lifetime.end.p0(i64 8, ptr %3) #7
  br label %99

99:                                               ; preds = %93, %9
  ret void
}