; Function Attrs: nounwind uwtable
define hidden void @SDL_RemoveTrayEntry_REAL(ptr noundef %0) local_unnamed_addr #0 {
  %.not = icmp eq ptr %0, null
  br i1 %.not, label %42, label %2

2:                                                ; preds = %1
  %3 = load ptr, ptr %0, align 8
  %4 = getelementptr inbounds nuw i8, ptr %3, i64 8
  %5 = load i32, ptr %4, align 8
  %6 = icmp sgt i32 %5, 1
  br i1 %6, label %.lr.ph, label %._crit_edge

.lr.ph:                                           ; preds = %2
  %7 = getelementptr inbounds nuw i8, ptr %3, i64 16
  br label %11

._crit_edge:                                      ; preds = %20, %2
  %8 = phi i32 [ %5, %2 ], [ %21, %20 ]
  %9 = getelementptr inbounds nuw i8, ptr %0, i64 40
  %10 = load ptr, ptr %9, align 8
  %.not28 = icmp eq ptr %10, null
  br i1 %.not28, label %26, label %25

11:                                               ; preds = %.lr.ph, %20
  %12 = phi i32 [ %5, %.lr.ph ], [ %21, %20 ]
  %indvars.iv = phi i64 [ 0, %.lr.ph ], [ %indvars.iv.next, %20 ]
  %.031 = phi i1 [ false, %.lr.ph ], [ %spec.select, %20 ]
  %13 = load ptr, ptr %7, align 8
  %14 = getelementptr inbounds nuw ptr, ptr %13, i64 %indvars.iv
  %15 = load ptr, ptr %14, align 8
  %16 = icmp eq ptr %15, %0
  %spec.select = or i1 %16, %.031
  br i1 %spec.select, label %17, label %20

17:                                               ; preds = %11
  %18 = getelementptr inbounds nuw i8, ptr %14, i64 8
  %19 = load ptr, ptr %18, align 8
  store ptr %19, ptr %14, align 8
  %.pre = load i32, ptr %4, align 8
  br label %20

20:                                               ; preds = %11, %17
  %21 = phi i32 [ %12, %11 ], [ %.pre, %17 ]
  %indvars.iv.next = add nuw nsw i64 %indvars.iv, 1
  %22 = add nsw i32 %21, -1
  %23 = sext i32 %22 to i64
  %24 = icmp slt i64 %indvars.iv.next, %23
  br i1 %24, label %11, label %._crit_edge, !llvm.loop !5

25:                                               ; preds = %._crit_edge
  tail call fastcc void @DestroySDLMenu(ptr noundef %10)
  %.pre32 = load i32, ptr %4, align 8
  br label %26

26:                                               ; preds = %25, %._crit_edge
  %27 = phi i32 [ %.pre32, %25 ], [ %8, %._crit_edge ]
  %28 = add nsw i32 %27, -1
  store i32 %28, ptr %4, align 8
  %29 = getelementptr inbounds nuw i8, ptr %3, i64 16
  %30 = load ptr, ptr %29, align 8
  %31 = sext i32 %27 to i64
  %32 = shl nsw i64 %31, 3
  %33 = tail call ptr @SDL_realloc_REAL(ptr noundef %30, i64 noundef %32) #13
  %.not29 = icmp eq ptr %33, null
  br i1 %.not29, label %38, label %34

34:                                               ; preds = %26
  store ptr %33, ptr %29, align 8
  %35 = load i32, ptr %4, align 8
  %36 = sext i32 %35 to i64
  %37 = getelementptr inbounds ptr, ptr %33, i64 %36
  store ptr null, ptr %37, align 8
  br label %38

38:                                               ; preds = %34, %26
  %39 = load ptr, ptr @gtk_widget_destroy, align 8
  %40 = getelementptr inbounds nuw i8, ptr %0, i64 8
  %41 = load ptr, ptr %40, align 8
  tail call void %39(ptr noundef %41) #10
  tail call void @SDL_free_REAL(ptr noundef nonnull %0) #10
  br label %42

42:                                               ; preds = %1, %38
  ret void
}